target datalayout = "e-m:e-p270:32:32-p271:32:32-p272:64:64-i64:64-i128:128-f80:128-n8:16:32:64-S128"
target triple = "x86_64-pc-linux-gnu"

%struct.Table = type { ptr, i8, i8, i8, i8, i32, ptr, ptr, ptr, ptr }

; Function Attrs: nounwind uwtable
define internal i64 @sizehash(ptr noundef %0) #0 {
  %2 = alloca ptr, align 8
  store ptr %0, ptr %2, align 8, !tbaa !9
  %3 = load ptr, ptr %2, align 8, !tbaa !9
  %4 = getelementptr inbounds nuw %struct.Table, ptr %3, i32 0, i32 4
  %5 = load i8, ptr %4, align 1, !tbaa !27
  %6 = zext i8 %5 to i32
  %7 = shl i32 1, %6
  %8 = zext i32 %7 to i64
  %9 = mul i64 %8, 24
  %10 = load ptr, ptr %2, align 8, !tbaa !9
  %11 = getelementptr inbounds nuw %struct.Table, ptr %10, i32 0, i32 4
  %12 = load i8, ptr %11, align 1, !tbaa !27
  %13 = zext i8 %12 to i32
  %14 = icmp sge i32 %13, 3
  %15 = select i1 %14, i64 8, i64 0
  %16 = add i64 %9, %15
  ret i64 %16
}

; Function Attrs: nounwind uwtable
define internal void @freehash(ptr noundef %0, ptr noundef %1) #0 {
  %3 = alloca ptr, align 8
  %4 = alloca ptr, align 8
  %5 = alloca ptr, align 8
  store ptr %0, ptr %3, align 8, !tbaa !4
  store ptr %1, ptr %4, align 8, !tbaa !9
  %6 = load ptr, ptr %4, align 8, !tbaa !9
  %7 = getelementptr inbounds nuw %struct.Table, ptr %6, i32 0, i32 3
  %8 = load i8, ptr %7, align 2, !tbaa !30
  %9 = zext i8 %8 to i32
  %10 = and i32 %9, 64
  %11 = icmp ne i32 %10, 0
  br i1 %11, label %29, label %12

12:                                               ; preds = %2
  call void @llvm.lifetime.start.p0(i64 8, ptr %5) #8
  %13 = load ptr, ptr %4, align 8, !tbaa !9
  %14 = getelementptr inbounds nuw %struct.Table, ptr %13, i32 0, i32 7
  %15 = load ptr, ptr %14, align 8, !tbaa !28
  %16 = load ptr, ptr %4, align 8, !tbaa !9
  %17 = getelementptr inbounds nuw %struct.Table, ptr %16, i32 0, i32 4
  %18 = load i8, ptr %17, align 1, !tbaa !27
  %19 = zext i8 %18 to i32
  %20 = icmp sge i32 %19, 3
  %21 = select i1 %20, i64 8, i64 0
  %22 = sub i64 0, %21
  %23 = getelementptr inbounds i8, ptr %15, i64 %22
  store ptr %23, ptr %5, align 8, !tbaa !34
  %24 = load ptr, ptr %3, align 8, !tbaa !4
  %25 = load ptr, ptr %5, align 8, !tbaa !34
  %26 = load ptr, ptr %4, align 8, !tbaa !9
  %27 = call i64 @sizehash(ptr noundef %26)
  %28 = mul i64 %27, 1
  call void @luaM_free_(ptr noundef %24, ptr noundef %25, i64 noundef %28)
  call void @llvm.lifetime.end.p0(i64 8, ptr %5) #8
  br label %29

29:                                               ; preds = %12, %2
  ret void
}