; Function Attrs: nounwind uwtable
define internal fastcc void @freehash(ptr noundef %0, ptr noundef readonly captures(none) %1) unnamed_addr #0 {
  %3 = getelementptr inbounds nuw i8, ptr %1, i64 10
  %4 = load i8, ptr %3, align 2, !tbaa !21
  %5 = and i8 %4, 64
  %.not = icmp eq i8 %5, 0
  br i1 %.not, label %6, label %17

6:                                                ; preds = %2
  %7 = getelementptr inbounds nuw i8, ptr %1, i64 24
  %8 = load ptr, ptr %7, align 8, !tbaa !18
  %9 = getelementptr inbounds nuw i8, ptr %1, i64 11
  %10 = load i8, ptr %9, align 1, !tbaa !20
  %11 = icmp ugt i8 %10, 2
  %.neg = select i1 %11, i64 -8, i64 0
  %12 = getelementptr inbounds i8, ptr %8, i64 %.neg
  %13 = zext nneg i8 %10 to i64
  %14 = shl nuw i64 24, %13
  %15 = select i1 %11, i64 8, i64 0
  %16 = add nuw nsw i64 %14, %15
  tail call void @luaM_free_(ptr noundef %0, ptr noundef %12, i64 noundef %16) #13
  br label %17

17:                                               ; preds = %6, %2
  ret void
}